; ModuleID = 'source-C-CXX/55/1560.c'
source_filename = "source-C-CXX/55/1560.c"
target datalayout = "e-m:e-p270:32:32-p271:32:32-p272:64:64-i64:64-f80:128-n8:16:32:64-S128"
target triple = "x86_64-pc-linux-gnu"

@.str = private unnamed_addr constant [3 x i8] c"%d\00", align 1
@.str.1 = private unnamed_addr constant [12 x i8] c"%d%d%d%d%d\0A\00", align 1
@.str.2 = private unnamed_addr constant [10 x i8] c"%d%d%d%d\0A\00", align 1
@.str.3 = private unnamed_addr constant [8 x i8] c"%d%d%d\0A\00", align 1
@.str.4 = private unnamed_addr constant [6 x i8] c"%d%d\0A\00", align 1

; Function Attrs: nofree nounwind sspstrong uwtable
define dso_local void @main() local_unnamed_addr #0 {
  %1 = alloca i32, align 4
  %2 = bitcast i32* %1 to i8*
  call void @llvm.lifetime.start.p0i8(i64 4, i8* nonnull %2) #3
  %3 = call i32 (i8*, ...) @__isoc99_scanf(i8* getelementptr inbounds ([3 x i8], [3 x i8]* @.str, i64 0, i64 0), i32* nonnull %1)
  %4 = load i32, i32* %1, align 4, !tbaa !5
  %5 = icmp sgt i32 %4, 9999
  br i1 %5, label %6, label %19

6:                                                ; preds = %0
  %7 = udiv i32 %4, 10000
  %8 = mul nsw i32 %7, -10000
  %9 = add nsw i32 %8, %4
  %10 = sdiv i32 %9, 1000
  %11 = mul nsw i32 %10, -1000
  %12 = add i32 %11, %9
  %13 = sdiv i32 %12, 100
  %14 = mul nsw i32 %13, -100
  %15 = add i32 %14, %12
  %16 = sdiv i32 %15, 10
  %17 = urem i32 %4, 10
  %18 = call i32 (i8*, ...) @printf(i8* nonnull dereferenceable(1) getelementptr inbounds ([12 x i8], [12 x i8]* @.str.1, i64 0, i64 0), i32 %17, i32 %16, i32 %13, i32 %10, i32 %7)
  br label %63

19:                                               ; preds = %0
  %20 = icmp sgt i32 %4, 999
  br i1 %20, label %21, label %38

21:                                               ; preds = %19
  %22 = trunc i32 %4 to i16
  %23 = udiv i16 %22, 1000
  %24 = zext i16 %23 to i32
  %25 = mul nsw i32 %24, -1000
  %26 = add nsw i32 %25, %4
  %27 = trunc i32 %26 to i16
  %28 = sdiv i16 %27, 100
  %29 = sext i16 %28 to i32
  %30 = mul nsw i32 %29, -100
  %31 = add nsw i32 %30, %26
  %32 = trunc i32 %31 to i16
  %33 = sdiv i16 %32, 10
  %34 = sext i16 %33 to i32
  %35 = urem i16 %22, 10
  %36 = zext i16 %35 to i32
  %37 = call i32 (i8*, ...) @printf(i8* nonnull dereferenceable(1) getelementptr inbounds ([10 x i8], [10 x i8]* @.str.2, i64 0, i64 0), i32 %36, i32 %34, i32 %29, i32 %24)
  br label %63

38:                                               ; preds = %19
  %39 = icmp sgt i32 %4, 99
  br i1 %39, label %40, label %52

40:                                               ; preds = %38
  %41 = trunc i32 %4 to i16
  %42 = udiv i16 %41, 100
  %43 = zext i16 %42 to i32
  %44 = mul nsw i32 %43, -100
  %45 = add nsw i32 %44, %4
  %46 = trunc i32 %45 to i16
  %47 = sdiv i16 %46, 10
  %48 = sext i16 %47 to i32
  %49 = urem i16 %41, 10
  %50 = zext i16 %49 to i32
  %51 = call i32 (i8*, ...) @printf(i8* nonnull dereferenceable(1) getelementptr inbounds ([8 x i8], [8 x i8]* @.str.3, i64 0, i64 0), i32 %50, i32 %48, i32 %43)
  br label %63

52:                                               ; preds = %38
  %53 = icmp sgt i32 %4, 9
  br i1 %53, label %54, label %61

54:                                               ; preds = %52
  %55 = trunc i32 %4 to i8
  %56 = udiv i8 %55, 10
  %57 = zext i8 %56 to i32
  %58 = urem i8 %55, 10
  %59 = zext i8 %58 to i32
  %60 = call i32 (i8*, ...) @printf(i8* nonnull dereferenceable(1) getelementptr inbounds ([6 x i8], [6 x i8]* @.str.4, i64 0, i64 0), i32 %59, i32 %57)
  br label %63

61:                                               ; preds = %52
  %62 = call i32 (i8*, ...) @printf(i8* nonnull dereferenceable(1) getelementptr inbounds ([3 x i8], [3 x i8]* @.str, i64 0, i64 0), i32 %4)
  br label %63

63:                                               ; preds = %21, %54, %61, %40, %6
  call void @llvm.lifetime.end.p0i8(i64 4, i8* nonnull %2) #3
  ret void
}

; Function Attrs: argmemonly mustprogress nofree nosync nounwind willreturn
declare void @llvm.lifetime.start.p0i8(i64 immarg, i8* nocapture) #1

; Function Attrs: nofree nounwind
declare noundef i32 @__isoc99_scanf(i8* nocapture noundef readonly, ...) local_unnamed_addr #2

; Function Attrs: nofree nounwind
declare noundef i32 @printf(i8* nocapture noundef readonly, ...) local_unnamed_addr #2

; Function Attrs: argmemonly mustprogress nofree nosync nounwind willreturn
declare void @llvm.lifetime.end.p0i8(i64 immarg, i8* nocapture) #1


!llvm.module.flags = !{!0, !1, !2, !3}
!llvm.ident = !{!4}

!0 = !{i32 1, !"wchar_size", i32 4}
!1 = !{i32 7, !"PIC Level", i32 2}
!2 = !{i32 7, !"PIE Level", i32 2}
!3 = !{i32 7, !"uwtable", i32 1}
!4 = !{!"clang version 13.0.0"}
!5 = !{!6, !6, i64 0}
!6 = !{!"int", !7, i64 0}
!7 = !{!"omnipotent char", !8, i64 0}
!8 = !{!"Simple C/C++ TBAA"}
